target datalayout = "e-m:e-p270:32:32-p271:32:32-p272:64:64-i64:64-i128:128-f80:128-n8:16:32:64-S128"
target triple = "x86_64-pc-linux-gnu"

%struct.RelationData = type { %struct.RelFileLocator, ptr, i32, i32, i8, i8, i8, i8, i8, i32, i32, i32, i32, ptr, ptr, i32, %struct.LockInfoData, ptr, ptr, ptr, ptr, ptr, i8, ptr, ptr, ptr, ptr, ptr, ptr, i32, ptr, i8, ptr, ptr, i32, i8, i32, ptr, i8, ptr, ptr, ptr, ptr, ptr, ptr, ptr, i32, ptr, ptr, ptr, ptr, ptr, ptr, ptr, ptr, ptr, ptr, ptr, ptr, ptr, ptr, ptr, ptr, ptr, ptr, ptr, i32, i8, ptr }
%struct.RelFileLocator = type { i32, i32, i32 }
%struct.LockInfoData = type { %struct.LockRelId }
%struct.LockRelId = type { i32, i32 }
%struct.IndexTupleData = type { %struct.ItemPointerData, i16 }
%struct.ItemPointerData = type { %struct.BlockIdData, i16 }
%struct.BlockIdData = type { i16, i16 }

; Function Attrs: nounwind uwtable
define dso_local zeroext i1 @hashinsert(ptr noundef %0, ptr noundef %1, ptr noundef %2, ptr noundef %3, ptr noundef %4, i32 noundef %5, i1 noundef zeroext %6, ptr noundef %7) #0 {
  %9 = alloca i1, align 1
  %10 = alloca ptr, align 8
  %11 = alloca ptr, align 8
  %12 = alloca ptr, align 8
  %13 = alloca ptr, align 8
  %14 = alloca ptr, align 8
  %15 = alloca i32, align 4
  %16 = alloca i8, align 1
  %17 = alloca ptr, align 8
  %18 = alloca [1 x i64], align 8
  %19 = alloca [1 x i8], align 1
  %20 = alloca ptr, align 8
  %21 = alloca i32, align 4
  store ptr %0, ptr %10, align 8
  store ptr %1, ptr %11, align 8
  store ptr %2, ptr %12, align 8
  store ptr %3, ptr %13, align 8
  store ptr %4, ptr %14, align 8
  store i32 %5, ptr %15, align 4
  %22 = zext i1 %6 to i8
  store i8 %22, ptr %16, align 1
  store ptr %7, ptr %17, align 8
  call void @llvm.lifetime.start.p0(i64 8, ptr %18) #6
  call void @llvm.lifetime.start.p0(i64 1, ptr %19) #6
  call void @llvm.lifetime.start.p0(i64 8, ptr %20) #6
  %23 = load ptr, ptr %10, align 8
  %24 = load ptr, ptr %11, align 8
  %25 = load ptr, ptr %12, align 8
  %26 = getelementptr inbounds [1 x i64], ptr %18, i64 0, i64 0
  %27 = getelementptr inbounds [1 x i8], ptr %19, i64 0, i64 0
  %28 = call zeroext i1 @_hash_convert_tuple(ptr noundef %23, ptr noundef %24, ptr noundef %25, ptr noundef %26, ptr noundef %27)
  br i1 %28, label %30, label %29

29:                                               ; preds = %8
  store i1 false, ptr %9, align 1
  store i32 1, ptr %21, align 4
  br label %44

30:                                               ; preds = %8
  %31 = load ptr, ptr %10, align 8
  %32 = getelementptr inbounds nuw %struct.RelationData, ptr %31, i32 0, i32 14
  %33 = load ptr, ptr %32, align 8
  %34 = getelementptr inbounds [1 x i64], ptr %18, i64 0, i64 0
  %35 = getelementptr inbounds [1 x i8], ptr %19, i64 0, i64 0
  %36 = call ptr @index_form_tuple(ptr noundef %33, ptr noundef %34, ptr noundef %35)
  store ptr %36, ptr %20, align 8
  %37 = load ptr, ptr %20, align 8
  %38 = getelementptr inbounds nuw %struct.IndexTupleData, ptr %37, i32 0, i32 0
  %39 = load ptr, ptr %13, align 8
  call void @llvm.memcpy.p0.p0.i64(ptr align 2 %38, ptr align 2 %39, i64 6, i1 false)
  %40 = load ptr, ptr %10, align 8
  %41 = load ptr, ptr %20, align 8
  %42 = load ptr, ptr %14, align 8
  call void @_hash_doinsert(ptr noundef %40, ptr noundef %41, ptr noundef %42, i1 noundef zeroext false)
  %43 = load ptr, ptr %20, align 8
  call void @pfree(ptr noundef %43)
  store i1 false, ptr %9, align 1
  store i32 1, ptr %21, align 4
  br label %44

44:                                               ; preds = %30, %29
  call void @llvm.lifetime.end.p0(i64 8, ptr %20) #6
  call void @llvm.lifetime.end.p0(i64 1, ptr %19) #6
  call void @llvm.lifetime.end.p0(i64 8, ptr %18) #6
  %45 = load i1, ptr %9, align 1
  ret i1 %45
}