; Function Attrs: nounwind uwtable
define dso_local noundef zeroext i1 @hashinsert(ptr noundef %0, ptr noundef %1, ptr noundef %2, ptr noundef readonly captures(none) %3, ptr noundef %4, i32 %5, i1 zeroext %6, ptr readnone captures(none) %7) #0 {
  %9 = alloca [1 x i64], align 8
  %10 = alloca [1 x i8], align 1
  call void @llvm.lifetime.start.p0(i64 8, ptr nonnull %9) #9
  call void @llvm.lifetime.start.p0(i64 1, ptr nonnull %10) #9
  %11 = call zeroext i1 @_hash_convert_tuple(ptr noundef %0, ptr noundef %1, ptr noundef %2, ptr noundef nonnull %9, ptr noundef nonnull %10) #9
  br i1 %11, label %12, label %16

12:                                               ; preds = %8
  %13 = getelementptr inbounds nuw i8, ptr %0, i64 64
  %14 = load ptr, ptr %13, align 8
  %15 = call ptr @index_form_tuple(ptr noundef %14, ptr noundef nonnull %9, ptr noundef nonnull %10) #9
  call void @llvm.memcpy.p0.p0.i64(ptr noundef nonnull align 2 dereferenceable(6) %15, ptr noundef nonnull align 2 dereferenceable(6) %3, i64 6, i1 false)
  call void @_hash_doinsert(ptr noundef %0, ptr noundef nonnull %15, ptr noundef %4, i1 noundef zeroext false) #9
  call void @pfree(ptr noundef nonnull %15) #9
  br label %16

16:                                               ; preds = %8, %12
  call void @llvm.lifetime.end.p0(i64 1, ptr nonnull %10) #9
  call void @llvm.lifetime.end.p0(i64 8, ptr nonnull %9) #9
  ret i1 false
}